target datalayout = "e-m:e-p270:32:32-p271:32:32-p272:64:64-i64:64-i128:128-f80:128-n8:16:32:64-S128"
target triple = "x86_64-pc-linux-gnu"

%"struct.ozz::math::Float3" = type { float, float, float }
%"struct.ozz::math::Quaternion" = type { float, float, float, float }
%"struct.ozz::animation::offline::RawAnimation::JointTrack" = type { %"class.std::vector", %"class.std::vector.0", %"class.std::vector.4" }
%"class.std::vector" = type { %"struct.std::_Vector_base" }
%"struct.std::_Vector_base" = type { %"struct.std::_Vector_base<ozz::animation::offline::RawAnimation::TranslationKey, ozz::StdAllocator<ozz::animation::offline::RawAnimation::TranslationKey>>::_Vector_impl" }
%"struct.std::_Vector_base<ozz::animation::offline::RawAnimation::TranslationKey, ozz::StdAllocator<ozz::animation::offline::RawAnimation::TranslationKey>>::_Vector_impl" = type { %"struct.std::_Vector_base<ozz::animation::offline::RawAnimation::TranslationKey, ozz::StdAllocator<ozz::animation::offline::RawAnimation::TranslationKey>>::_Vector_impl_data" }
%"struct.std::_Vector_base<ozz::animation::offline::RawAnimation::TranslationKey, ozz::StdAllocator<ozz::animation::offline::RawAnimation::TranslationKey>>::_Vector_impl_data" = type { ptr, ptr, ptr }
%"class.std::vector.0" = type { %"struct.std::_Vector_base.1" }
%"struct.std::_Vector_base.1" = type { %"struct.std::_Vector_base<ozz::animation::offline::RawAnimation::RotationKey, ozz::StdAllocator<ozz::animation::offline::RawAnimation::RotationKey>>::_Vector_impl" }
%"struct.std::_Vector_base<ozz::animation::offline::RawAnimation::RotationKey, ozz::StdAllocator<ozz::animation::offline::RawAnimation::RotationKey>>::_Vector_impl" = type { %"struct.std::_Vector_base<ozz::animation::offline::RawAnimation::RotationKey, ozz::StdAllocator<ozz::animation::offline::RawAnimation::RotationKey>>::_Vector_impl_data" }
%"struct.std::_Vector_base<ozz::animation::offline::RawAnimation::RotationKey, ozz::StdAllocator<ozz::animation::offline::RawAnimation::RotationKey>>::_Vector_impl_data" = type { ptr, ptr, ptr }
%"class.std::vector.4" = type { %"struct.std::_Vector_base.5" }
%"struct.std::_Vector_base.5" = type { %"struct.std::_Vector_base<ozz::animation::offline::RawAnimation::ScaleKey, ozz::StdAllocator<ozz::animation::offline::RawAnimation::ScaleKey>>::_Vector_impl" }
%"struct.std::_Vector_base<ozz::animation::offline::RawAnimation::ScaleKey, ozz::StdAllocator<ozz::animation::offline::RawAnimation::ScaleKey>>::_Vector_impl" = type { %"struct.std::_Vector_base<ozz::animation::offline::RawAnimation::ScaleKey, ozz::StdAllocator<ozz::animation::offline::RawAnimation::ScaleKey>>::_Vector_impl_data" }
%"struct.std::_Vector_base<ozz::animation::offline::RawAnimation::ScaleKey, ozz::StdAllocator<ozz::animation::offline::RawAnimation::ScaleKey>>::_Vector_impl_data" = type { ptr, ptr, ptr }
%"struct.ozz::math::Transform" = type { %"struct.ozz::math::Float3", %"struct.ozz::math::Quaternion", %"struct.ozz::math::Float3" }
%"struct.ozz::animation::offline::RawAnimation" = type { %"class.std::vector.8", float, %"class.std::__cxx11::basic_string" }
%"class.std::vector.8" = type { %"struct.std::_Vector_base.9" }
%"struct.std::_Vector_base.9" = type { %"struct.std::_Vector_base<ozz::animation::offline::RawAnimation::JointTrack, ozz::StdAllocator<ozz::animation::offline::RawAnimation::JointTrack>>::_Vector_impl" }
%"struct.std::_Vector_base<ozz::animation::offline::RawAnimation::JointTrack, ozz::StdAllocator<ozz::animation::offline::RawAnimation::JointTrack>>::_Vector_impl" = type { %"struct.std::_Vector_base<ozz::animation::offline::RawAnimation::JointTrack, ozz::StdAllocator<ozz::animation::offline::RawAnimation::JointTrack>>::_Vector_impl_data" }
%"struct.std::_Vector_base<ozz::animation::offline::RawAnimation::JointTrack, ozz::StdAllocator<ozz::animation::offline::RawAnimation::JointTrack>>::_Vector_impl_data" = type { ptr, ptr, ptr }
%"class.std::__cxx11::basic_string" = type { %"struct.std::__cxx11::basic_string<char, std::char_traits<char>, ozz::StdAllocator<char>>::_Alloc_hider", i64, %union.anon }
%"struct.std::__cxx11::basic_string<char, std::char_traits<char>, ozz::StdAllocator<char>>::_Alloc_hider" = type { ptr }
%union.anon = type { i64, [8 x i8] }
%"struct.ozz::span" = type { ptr, i64 }

; Function Attrs: mustprogress nounwind uwtable
define linkonce_odr dso_local noundef ptr @_ZNK3ozz4spanINS_4math9TransformEE5beginEv(ptr noundef nonnull align 8 dereferenceable(16) %0) #7 comdat align 2 {
  %2 = alloca ptr, align 8
  store ptr %0, ptr %2, align 8, !tbaa !35
  %3 = load ptr, ptr %2, align 8
  %4 = getelementptr inbounds nuw %"struct.ozz::span", ptr %3, i32 0, i32 0
  %5 = load ptr, ptr %4, align 8, !tbaa !48
  ret ptr %5
}

; Function Attrs: mustprogress nounwind uwtable
define linkonce_odr dso_local noundef nonnull align 8 dereferenceable(72) ptr @_ZNKSt6vectorIN3ozz9animation7offline12RawAnimation10JointTrackENS0_12StdAllocatorIS4_EEEixEm(ptr noundef nonnull align 8 dereferenceable(24) %0, i64 noundef %1) #7 comdat align 2 {
  %3 = alloca ptr, align 8
  %4 = alloca i64, align 8
  store ptr %0, ptr %3, align 8, !tbaa !41
  store i64 %1, ptr %4, align 8, !tbaa !37
  %5 = load ptr, ptr %3, align 8
  %6 = getelementptr inbounds nuw %"struct.std::_Vector_base.9", ptr %5, i32 0, i32 0
  %7 = getelementptr inbounds nuw %"struct.std::_Vector_base<ozz::animation::offline::RawAnimation::JointTrack, ozz::StdAllocator<ozz::animation::offline::RawAnimation::JointTrack>>::_Vector_impl_data", ptr %6, i32 0, i32 0
  %8 = load ptr, ptr %7, align 8, !tbaa !45
  %9 = load i64, ptr %4, align 8, !tbaa !37
  %10 = getelementptr inbounds nuw %"struct.ozz::animation::offline::RawAnimation::JointTrack", ptr %8, i64 %9
  ret ptr %10
}

; Function Attrs: mustprogress nounwind uwtable
define linkonce_odr dso_local noundef i64 @_ZNK3ozz4spanINS_4math9TransformEE4sizeEv(ptr noundef nonnull align 8 dereferenceable(16) %0) #7 comdat align 2 {
  %2 = alloca ptr, align 8
  store ptr %0, ptr %2, align 8, !tbaa !35
  %3 = load ptr, ptr %2, align 8
  %4 = getelementptr inbounds nuw %"struct.ozz::span", ptr %3, i32 0, i32 1
  %5 = load i64, ptr %4, align 8, !tbaa !46
  ret i64 %5
}

; Function Attrs: mustprogress nounwind uwtable
define linkonce_odr dso_local noundef i64 @_ZNKSt6vectorIN3ozz9animation7offline12RawAnimation10JointTrackENS0_12StdAllocatorIS4_EEE4sizeEv(ptr noundef nonnull align 8 dereferenceable(24) %0) #7 comdat align 2 {
  %2 = alloca ptr, align 8
  store ptr %0, ptr %2, align 8, !tbaa !41
  %3 = load ptr, ptr %2, align 8
  %4 = getelementptr inbounds nuw %"struct.std::_Vector_base.9", ptr %3, i32 0, i32 0
  %5 = getelementptr inbounds nuw %"struct.std::_Vector_base<ozz::animation::offline::RawAnimation::JointTrack, ozz::StdAllocator<ozz::animation::offline::RawAnimation::JointTrack>>::_Vector_impl_data", ptr %4, i32 0, i32 1
  %6 = load ptr, ptr %5, align 8, !tbaa !43
  %7 = getelementptr inbounds nuw %"struct.std::_Vector_base.9", ptr %3, i32 0, i32 0
  %8 = getelementptr inbounds nuw %"struct.std::_Vector_base<ozz::animation::offline::RawAnimation::JointTrack, ozz::StdAllocator<ozz::animation::offline::RawAnimation::JointTrack>>::_Vector_impl_data", ptr %7, i32 0, i32 0
  %9 = load ptr, ptr %8, align 8, !tbaa !45
  %10 = ptrtoint ptr %6 to i64
  %11 = ptrtoint ptr %9 to i64
  %12 = sub i64 %10, %11
  %13 = sdiv exact i64 %12, 72
  ret i64 %13
}

; Function Attrs: mustprogress uwtable
define dso_local noundef zeroext i1 @_ZN3ozz9animation7offline15SampleAnimationERKNS1_12RawAnimationEfRKNS_4spanINS_4math9TransformEEE(ptr noundef nonnull align 8 dereferenceable(64) %0, float noundef %1, ptr noundef nonnull align 8 dereferenceable(16) %2) #5 {
  %4 = alloca i1, align 1
  %5 = alloca ptr, align 8
  %6 = alloca float, align 4
  %7 = alloca ptr, align 8
  %8 = alloca i64, align 8
  store ptr %0, ptr %5, align 8, !tbaa !33
  store float %1, ptr %6, align 4, !tbaa !9
  store ptr %2, ptr %7, align 8, !tbaa !35
  %9 = load ptr, ptr %5, align 8, !tbaa !33
  %10 = call noundef zeroext i1 @_ZNK3ozz9animation7offline12RawAnimation8ValidateEv(ptr noundef nonnull align 8 dereferenceable(64) %9)
  br i1 %10, label %12, label %11

11:                                               ; preds = %3
  store i1 false, ptr %4, align 1
  br label %42

12:                                               ; preds = %3
  %13 = load ptr, ptr %5, align 8, !tbaa !33
  %14 = getelementptr inbounds nuw %"struct.ozz::animation::offline::RawAnimation", ptr %13, i32 0, i32 0
  %15 = call noundef i64 @_ZNKSt6vectorIN3ozz9animation7offline12RawAnimation10JointTrackENS0_12StdAllocatorIS4_EEE4sizeEv(ptr noundef nonnull align 8 dereferenceable(24) %14) #15
  %16 = load ptr, ptr %7, align 8, !tbaa !35
  %17 = call noundef i64 @_ZNK3ozz4spanINS_4math9TransformEE4sizeEv(ptr noundef nonnull align 8 dereferenceable(16) %16)
  %18 = icmp ugt i64 %15, %17
  br i1 %18, label %19, label %20

19:                                               ; preds = %12
  store i1 false, ptr %4, align 1
  br label %42

20:                                               ; preds = %12
  call void @llvm.lifetime.start.p0(i64 8, ptr %8) #15
  store i64 0, ptr %8, align 8, !tbaa !37
  br label %21

21:                                               ; preds = %38, %20
  %22 = load i64, ptr %8, align 8, !tbaa !37
  %23 = load ptr, ptr %5, align 8, !tbaa !33
  %24 = getelementptr inbounds nuw %"struct.ozz::animation::offline::RawAnimation", ptr %23, i32 0, i32 0
  %25 = call noundef i64 @_ZNKSt6vectorIN3ozz9animation7offline12RawAnimation10JointTrackENS0_12StdAllocatorIS4_EEE4sizeEv(ptr noundef nonnull align 8 dereferenceable(24) %24) #15
  %26 = icmp ult i64 %22, %25
  br i1 %26, label %28, label %27

27:                                               ; preds = %21
  call void @llvm.lifetime.end.p0(i64 8, ptr %8) #15
  br label %41

28:                                               ; preds = %21
  %29 = load ptr, ptr %5, align 8, !tbaa !33
  %30 = getelementptr inbounds nuw %"struct.ozz::animation::offline::RawAnimation", ptr %29, i32 0, i32 0
  %31 = load i64, ptr %8, align 8, !tbaa !37
  %32 = call noundef nonnull align 8 dereferenceable(72) ptr @_ZNKSt6vectorIN3ozz9animation7offline12RawAnimation10JointTrackENS0_12StdAllocatorIS4_EEEixEm(ptr noundef nonnull align 8 dereferenceable(24) %30, i64 noundef %31) #15
  %33 = load float, ptr %6, align 4, !tbaa !9
  %34 = load ptr, ptr %7, align 8, !tbaa !35
  %35 = call noundef ptr @_ZNK3ozz4spanINS_4math9TransformEE5beginEv(ptr noundef nonnull align 8 dereferenceable(16) %34)
  %36 = load i64, ptr %8, align 8, !tbaa !37
  %37 = getelementptr inbounds nuw %"struct.ozz::math::Transform", ptr %35, i64 %36
  call void @_ZN3ozz9animation7offline12_GLOBAL__N_122SampleTrack_NoValidateERKNS1_12RawAnimation10JointTrackEfPNS_4math9TransformE(ptr noundef nonnull align 8 dereferenceable(72) %32, float noundef %33, ptr noundef %37)
  br label %38

38:                                               ; preds = %28
  %39 = load i64, ptr %8, align 8, !tbaa !37
  %40 = add i64 %39, 1
  store i64 %40, ptr %8, align 8, !tbaa !37
  br label %21, !llvm.loop !39

41:                                               ; preds = %27
  store i1 true, ptr %4, align 1
  br label %42

42:                                               ; preds = %41, %19, %11
  %43 = load i1, ptr %4, align 1
  ret i1 %43
}