; Function Attrs: mustprogress uwtable
define dso_local noundef zeroext i1 @_ZN3ozz9animation7offline15SampleAnimationERKNS1_12RawAnimationEfRKNS_4spanINS_4math9TransformEEE(ptr noundef nonnull align 8 dereferenceable(64) %0, float noundef %1, ptr noundef nonnull readonly align 8 captures(none) dereferenceable(16) %2) local_unnamed_addr #3 {
  %4 = tail call noundef zeroext i1 @_ZNK3ozz9animation7offline12RawAnimation8ValidateEv(ptr noundef nonnull align 8 dereferenceable(64) %0)
  br i1 %4, label %5, label %.loopexit

5:                                                ; preds = %3
  %6 = getelementptr inbounds nuw i8, ptr %0, i64 8
  %7 = load ptr, ptr %6, align 8, !tbaa !40
  %8 = load ptr, ptr %0, align 8, !tbaa !43
  %9 = ptrtoint ptr %7 to i64
  %10 = ptrtoint ptr %8 to i64
  %11 = sub i64 %9, %10
  %12 = sdiv exact i64 %11, 72
  %13 = getelementptr inbounds nuw i8, ptr %2, i64 8
  %14 = load i64, ptr %13, align 8, !tbaa !44
  %15 = icmp ugt i64 %12, %14
  br i1 %15, label %.loopexit, label %.preheader

.preheader:                                       ; preds = %5
  %.not = icmp eq ptr %7, %8
  br i1 %.not, label %.loopexit, label %.lr.ph

.lr.ph:                                           ; preds = %.preheader, %.lr.ph
  %16 = phi ptr [ %22, %.lr.ph ], [ %8, %.preheader ]
  %.012 = phi i64 [ %20, %.lr.ph ], [ 0, %.preheader ]
  %17 = getelementptr inbounds nuw %"struct.ozz::animation::offline::RawAnimation::JointTrack", ptr %16, i64 %.012
  %18 = load ptr, ptr %2, align 8, !tbaa !48
  %19 = getelementptr inbounds nuw %"struct.ozz::math::Transform", ptr %18, i64 %.012
  tail call fastcc void @_ZN3ozz9animation7offline12_GLOBAL__N_122SampleTrack_NoValidateERKNS1_12RawAnimation10JointTrackEfPNS_4math9TransformE(ptr noundef nonnull align 8 dereferenceable(72) %17, float noundef %1, ptr noundef %19)
  %20 = add nuw i64 %.012, 1
  %21 = load ptr, ptr %6, align 8, !tbaa !40
  %22 = load ptr, ptr %0, align 8, !tbaa !43
  %23 = ptrtoint ptr %21 to i64
  %24 = ptrtoint ptr %22 to i64
  %25 = sub i64 %23, %24
  %26 = sdiv exact i64 %25, 72
  %27 = icmp ult i64 %20, %26
  br i1 %27, label %.lr.ph, label %.loopexit, !llvm.loop !49

.loopexit:                                        ; preds = %.lr.ph, %.preheader, %5, %3
  %.011 = phi i1 [ false, %3 ], [ false, %5 ], [ true, %.preheader ], [ true, %.lr.ph ]
  ret i1 %.011
}